; ModuleID = '21/1184.c'
source_filename = "21/1184.c"
target datalayout = "e-m:e-p270:32:32-p271:32:32-p272:64:64-i64:64-f80:128-n8:16:32:64-S128"
target triple = "x86_64-pc-linux-gnu"

@.str = private unnamed_addr constant [3 x i8] c"%d\00", align 1
@.str.1 = private unnamed_addr constant [4 x i8] c"%lf\00", align 1
@.str.2 = private unnamed_addr constant [6 x i8] c"%.0lf\00", align 1
@.str.3 = private unnamed_addr constant [7 x i8] c",%.0lf\00", align 1

; Function Attrs: noinline nounwind uwtable
define dso_local void @main() #0 {
  %1 = alloca i32, align 4
  %2 = alloca i32, align 4
  %3 = alloca i32, align 4
  %4 = alloca [300 x double], align 16
  %5 = alloca [300 x double], align 16
  %6 = alloca double, align 8
  %7 = alloca double, align 8
  %8 = alloca double, align 8
  store i32 0, i32* %3, align 4
  store double 0.000000e+00, double* %6, align 8
  store double 0.000000e+00, double* %8, align 8
  %9 = call i32 (i8*, ...) @__isoc99_scanf(i8* getelementptr inbounds ([3 x i8], [3 x i8]* @.str, i64 0, i64 0), i32* %2)
  store i32 0, i32* %1, align 4
  br label %10

10:                                               ; preds = %19, %0
  %11 = load i32, i32* %1, align 4
  %12 = load i32, i32* %2, align 4
  %13 = icmp slt i32 %11, %12
  br i1 %13, label %14, label %22

14:                                               ; preds = %10
  %15 = load i32, i32* %1, align 4
  %16 = sext i32 %15 to i64
  %17 = getelementptr inbounds [300 x double], [300 x double]* %4, i64 0, i64 %16
  %18 = call i32 (i8*, ...) @__isoc99_scanf(i8* getelementptr inbounds ([4 x i8], [4 x i8]* @.str.1, i64 0, i64 0), double* %17)
  br label %19

19:                                               ; preds = %14
  %20 = load i32, i32* %1, align 4
  %21 = add nsw i32 %20, 1
  store i32 %21, i32* %1, align 4
  br label %10

22:                                               ; preds = %10
  store i32 0, i32* %1, align 4
  br label %23

23:                                               ; preds = %34, %22
  %24 = load i32, i32* %1, align 4
  %25 = load i32, i32* %2, align 4
  %26 = icmp slt i32 %24, %25
  br i1 %26, label %27, label %37

27:                                               ; preds = %23
  %28 = load i32, i32* %1, align 4
  %29 = sext i32 %28 to i64
  %30 = getelementptr inbounds [300 x double], [300 x double]* %4, i64 0, i64 %29
  %31 = load double, double* %30, align 8
  %32 = load double, double* %6, align 8
  %33 = fadd double %32, %31
  store double %33, double* %6, align 8
  br label %34

34:                                               ; preds = %27
  %35 = load i32, i32* %1, align 4
  %36 = add nsw i32 %35, 1
  store i32 %36, i32* %1, align 4
  br label %23

37:                                               ; preds = %23
  %38 = load double, double* %6, align 8
  %39 = load i32, i32* %2, align 4
  %40 = sitofp i32 %39 to double
  %41 = fdiv double %38, %40
  store double %41, double* %7, align 8
  store i32 0, i32* %1, align 4
  br label %42

42:                                               ; preds = %86, %37
  %43 = load i32, i32* %1, align 4
  %44 = load i32, i32* %2, align 4
  %45 = icmp slt i32 %43, %44
  br i1 %45, label %46, label %89

46:                                               ; preds = %42
  %47 = load double, double* %7, align 8
  %48 = load i32, i32* %1, align 4
  %49 = sext i32 %48 to i64
  %50 = getelementptr inbounds [300 x double], [300 x double]* %4, i64 0, i64 %49
  %51 = load double, double* %50, align 8
  %52 = fcmp ogt double %47, %51
  br i1 %52, label %53, label %63

53:                                               ; preds = %46
  %54 = load double, double* %7, align 8
  %55 = load i32, i32* %1, align 4
  %56 = sext i32 %55 to i64
  %57 = getelementptr inbounds [300 x double], [300 x double]* %4, i64 0, i64 %56
  %58 = load double, double* %57, align 8
  %59 = fsub double %54, %58
  %60 = load i32, i32* %1, align 4
  %61 = sext i32 %60 to i64
  %62 = getelementptr inbounds [300 x double], [300 x double]* %5, i64 0, i64 %61
  store double %59, double* %62, align 8
  br label %73

63:                                               ; preds = %46
  %64 = load i32, i32* %1, align 4
  %65 = sext i32 %64 to i64
  %66 = getelementptr inbounds [300 x double], [300 x double]* %4, i64 0, i64 %65
  %67 = load double, double* %66, align 8
  %68 = load double, double* %7, align 8
  %69 = fsub double %67, %68
  %70 = load i32, i32* %1, align 4
  %71 = sext i32 %70 to i64
  %72 = getelementptr inbounds [300 x double], [300 x double]* %5, i64 0, i64 %71
  store double %69, double* %72, align 8
  br label %73

73:                                               ; preds = %63, %53
  %74 = load i32, i32* %1, align 4
  %75 = sext i32 %74 to i64
  %76 = getelementptr inbounds [300 x double], [300 x double]* %5, i64 0, i64 %75
  %77 = load double, double* %76, align 8
  %78 = load double, double* %8, align 8
  %79 = fcmp ogt double %77, %78
  br i1 %79, label %80, label %85

80:                                               ; preds = %73
  %81 = load i32, i32* %1, align 4
  %82 = sext i32 %81 to i64
  %83 = getelementptr inbounds [300 x double], [300 x double]* %5, i64 0, i64 %82
  %84 = load double, double* %83, align 8
  store double %84, double* %8, align 8
  br label %85

85:                                               ; preds = %80, %73
  br label %86

86:                                               ; preds = %85
  %87 = load i32, i32* %1, align 4
  %88 = add nsw i32 %87, 1
  store i32 %88, i32* %1, align 4
  br label %42

89:                                               ; preds = %42
  store i32 0, i32* %1, align 4
  br label %90

90:                                               ; preds = %120, %89
  %91 = load i32, i32* %1, align 4
  %92 = load i32, i32* %2, align 4
  %93 = icmp slt i32 %91, %92
  br i1 %93, label %94, label %123

94:                                               ; preds = %90
  %95 = load i32, i32* %1, align 4
  %96 = sext i32 %95 to i64
  %97 = getelementptr inbounds [300 x double], [300 x double]* %5, i64 0, i64 %96
  %98 = load double, double* %97, align 8
  %99 = load double, double* %8, align 8
  %100 = fcmp oeq double %98, %99
  br i1 %100, label %101, label %119

101:                                              ; preds = %94
  %102 = load i32, i32* %3, align 4
  %103 = icmp eq i32 %102, 0
  br i1 %103, label %104, label %112

104:                                              ; preds = %101
  %105 = load i32, i32* %1, align 4
  %106 = sext i32 %105 to i64
  %107 = getelementptr inbounds [300 x double], [300 x double]* %4, i64 0, i64 %106
  %108 = load double, double* %107, align 8
  %109 = call i32 (i8*, ...) @printf(i8* getelementptr inbounds ([6 x i8], [6 x i8]* @.str.2, i64 0, i64 0), double %108)
  %110 = load i32, i32* %3, align 4
  %111 = add nsw i32 %110, 1
  store i32 %111, i32* %3, align 4
  br label %118

112:                                              ; preds = %101
  %113 = load i32, i32* %1, align 4
  %114 = sext i32 %113 to i64
  %115 = getelementptr inbounds [300 x double], [300 x double]* %4, i64 0, i64 %114
  %116 = load double, double* %115, align 8
  %117 = call i32 (i8*, ...) @printf(i8* getelementptr inbounds ([7 x i8], [7 x i8]* @.str.3, i64 0, i64 0), double %116)
  br label %118

118:                                              ; preds = %112, %104
  br label %119

119:                                              ; preds = %118, %94
  br label %120

120:                                              ; preds = %119
  %121 = load i32, i32* %1, align 4
  %122 = add nsw i32 %121, 1
  store i32 %122, i32* %1, align 4
  br label %90

123:                                              ; preds = %90
  ret void
}

declare dso_local i32 @__isoc99_scanf(i8*, ...) #1

declare dso_local i32 @printf(i8*, ...) #1


!llvm.module.flags = !{!0}
!llvm.ident = !{!1}

!0 = !{i32 1, !"wchar_size", i32 4}
!1 = !{!"clang version 10.0.0-4ubuntu1 "}
